; ModuleID = 'bench/cmake/original/cmCursesLabelWidget.cxx.ll'
source_filename = "bench/cmake/original/cmCursesLabelWidget.cxx.ll"
target datalayout = "e-m:e-p270:32:32-p271:32:32-p272:64:64-i64:64-i128:128-f80:128-n8:16:32:64-S128"
target triple = "x86_64-pc-linux-gnu"

$_ZN14cmCursesWidget9PrintKeysEv = comdat any

@_ZTV19cmCursesLabelWidget = dso_local unnamed_addr constant { [9 x ptr] } { [9 x ptr] [ptr null, ptr @_ZTI19cmCursesLabelWidget, ptr @_ZN19cmCursesLabelWidgetD2Ev, ptr @_ZN19cmCursesLabelWidgetD0Ev, ptr @_ZN19cmCursesLabelWidget11HandleInputERiP16cmCursesMainFormP7_win_st, ptr @_ZN14cmCursesWidget4MoveEiib, ptr @_ZN14cmCursesWidget8SetValueERKNSt7__cxx1112basic_stringIcSt11char_traitsIcESaIcEEE, ptr @_ZN14cmCursesWidget8GetValueEv, ptr @_ZN14cmCursesWidget9PrintKeysEv] }, align 8
@_ZTVN10__cxxabiv120__si_class_type_infoE = external global [0 x ptr]
@_ZTS19cmCursesLabelWidget = dso_local constant [22 x i8] c"19cmCursesLabelWidget\00", align 1
@_ZTI14cmCursesWidget = external constant ptr
@_ZTI19cmCursesLabelWidget = dso_local constant { ptr, ptr, ptr } { ptr getelementptr inbounds (ptr, ptr @_ZTVN10__cxxabiv120__si_class_type_infoE, i64 2), ptr @_ZTS19cmCursesLabelWidget, ptr @_ZTI14cmCursesWidget }, align 8

@_ZN19cmCursesLabelWidgetC1EiiiiRKNSt7__cxx1112basic_stringIcSt11char_traitsIcESaIcEEE = dso_local unnamed_addr alias void (ptr, i32, i32, i32, i32, ptr), ptr @_ZN19cmCursesLabelWidgetC2EiiiiRKNSt7__cxx1112basic_stringIcSt11char_traitsIcESaIcEEE
@_ZN19cmCursesLabelWidgetD1Ev = dso_local unnamed_addr alias void (ptr), ptr @_ZN19cmCursesLabelWidgetD2Ev

; Function Attrs: mustprogress uwtable
define dso_local void @_ZN19cmCursesLabelWidgetC2EiiiiRKNSt7__cxx1112basic_stringIcSt11char_traitsIcESaIcEEE(ptr noundef nonnull align 8 dereferenceable(60) %0, i32 noundef %1, i32 noundef %2, i32 noundef %3, i32 noundef %4, ptr noundef nonnull align 8 dereferenceable(32) %5) unnamed_addr #0 align 2 personality ptr @__gxx_personality_v0 {
  tail call void @_ZN14cmCursesWidgetC2Eiiii(ptr noundef nonnull align 8 dereferenceable(60) %0, i32 noundef %1, i32 noundef %2, i32 noundef %3, i32 noundef %4)
  store ptr getelementptr inbounds ({ [9 x ptr] }, ptr @_ZTV19cmCursesLabelWidget, i64 0, i32 0, i64 2), ptr %0, align 8
  %7 = getelementptr inbounds i8, ptr %0, i64 48
  %8 = load ptr, ptr %7, align 8
  %9 = invoke i32 @field_opts_off(ptr noundef %8, i32 noundef 8)
          to label %10 unwind label %21

10:                                               ; preds = %6
  %11 = load ptr, ptr %7, align 8
  %12 = invoke i32 @field_opts_off(ptr noundef %11, i32 noundef 2)
          to label %13 unwind label %21

13:                                               ; preds = %10
  %14 = load ptr, ptr %7, align 8
  %15 = invoke i32 @field_opts_off(ptr noundef %14, i32 noundef 512)
          to label %16 unwind label %21

16:                                               ; preds = %13
  %17 = load ptr, ptr %0, align 8
  %18 = getelementptr inbounds i8, ptr %17, i64 32
  %19 = load ptr, ptr %18, align 8
  invoke void %19(ptr noundef nonnull align 8 dereferenceable(60) %0, ptr noundef nonnull align 8 dereferenceable(32) %5)
          to label %20 unwind label %21

20:                                               ; preds = %16
  ret void

21:                                               ; preds = %16, %13, %10, %6
  %22 = landingpad { ptr, i32 }
          cleanup
  tail call void @_ZN14cmCursesWidgetD2Ev(ptr noundef nonnull align 8 dereferenceable(60) %0) #6
  resume { ptr, i32 } %22
}

declare void @_ZN14cmCursesWidgetC2Eiiii(ptr noundef nonnull align 8 dereferenceable(60), i32 noundef, i32 noundef, i32 noundef, i32 noundef) unnamed_addr #1

declare i32 @field_opts_off(ptr noundef, i32 noundef) local_unnamed_addr #1

declare i32 @__gxx_personality_v0(...)

; Function Attrs: nounwind
declare void @_ZN14cmCursesWidgetD2Ev(ptr noundef nonnull align 8 dereferenceable(60)) unnamed_addr #2

; Function Attrs: mustprogress nounwind uwtable
define dso_local void @_ZN19cmCursesLabelWidgetD2Ev(ptr noundef nonnull align 8 dereferenceable(60) %0) unnamed_addr #3 align 2 {
  tail call void @_ZN14cmCursesWidgetD2Ev(ptr noundef nonnull align 8 dereferenceable(60) %0) #6
  ret void
}

; Function Attrs: mustprogress nounwind uwtable
define dso_local void @_ZN19cmCursesLabelWidgetD0Ev(ptr noundef nonnull align 8 dereferenceable(60) %0) unnamed_addr #3 align 2 {
  tail call void @_ZN14cmCursesWidgetD2Ev(ptr noundef nonnull align 8 dereferenceable(60) %0) #6
  tail call void @_ZdlPv(ptr noundef nonnull %0) #7
  ret void
}

; Function Attrs: nobuiltin nounwind
declare void @_ZdlPv(ptr noundef) local_unnamed_addr #4

; Function Attrs: mustprogress nofree norecurse nosync nounwind willreturn memory(none) uwtable
define dso_local noundef zeroext i1 @_ZN19cmCursesLabelWidget11HandleInputERiP16cmCursesMainFormP7_win_st(ptr nocapture nonnull readnone align 8 %0, ptr nocapture nonnull readnone align 4 %1, ptr nocapture readnone %2, ptr nocapture readnone %3) unnamed_addr #5 align 2 {
  ret i1 false
}

declare void @_ZN14cmCursesWidget4MoveEiib(ptr noundef nonnull align 8 dereferenceable(60), i32 noundef, i32 noundef, i1 noundef zeroext) unnamed_addr #1

declare void @_ZN14cmCursesWidget8SetValueERKNSt7__cxx1112basic_stringIcSt11char_traitsIcESaIcEEE(ptr noundef nonnull align 8 dereferenceable(60), ptr noundef nonnull align 8 dereferenceable(32)) unnamed_addr #1

declare noundef ptr @_ZN14cmCursesWidget8GetValueEv(ptr noundef nonnull align 8 dereferenceable(60)) unnamed_addr #1

; Function Attrs: mustprogress nounwind uwtable
define linkonce_odr dso_local noundef zeroext i1 @_ZN14cmCursesWidget9PrintKeysEv(ptr noundef nonnull align 8 dereferenceable(60) %0) unnamed_addr #3 comdat align 2 {
  ret i1 false
}


!llvm.module.flags = !{!0, !1, !2, !3, !4}

!0 = !{i32 1, !"wchar_size", i32 4}
!1 = !{i32 8, !"PIC Level", i32 2}
!2 = !{i32 7, !"PIE Level", i32 2}
!3 = !{i32 7, !"uwtable", i32 2}
!4 = !{i32 7, !"frame-pointer", i32 2}
